; Function Attrs: null_pointer_is_valid sspstrong uwtable
define ptr @conversation_filter_from_log(ptr noundef %0) local_unnamed_addr #0 {
  %2 = load ptr, ptr @log_conv_filter_list, align 8
  %.01423.i = load ptr, ptr @conversation_proto_names, align 8
  %.not24.i = icmp eq ptr %.01423.i, null
  %.not11.i.i = icmp eq ptr %2, null
  %or.cond.i = or i1 %.not11.i.i, %.not24.i
  br i1 %or.cond.i, label %conversation_filter_from_pinfo.exit, label %.lr.ph.i.preheader.i

.lr.ph.i.preheader.i:                             ; preds = %1, %find_conversation_filter.exit.thread.i
  %.01425.i = phi ptr [ %.014.i, %find_conversation_filter.exit.thread.i ], [ %.01423.i, %1 ]
  %3 = load ptr, ptr %.01425.i, align 8
  br label %.lr.ph.i.i

.lr.ph.i.i:                                       ; preds = %7, %.lr.ph.i.preheader.i
  %.0912.i.i = phi ptr [ %9, %7 ], [ %2, %.lr.ph.i.preheader.i ]
  %4 = load ptr, ptr %.0912.i.i, align 8
  %5 = load ptr, ptr %4, align 8
  %6 = tail call i32 @strcmp(ptr noundef %5, ptr noundef readonly %3) #4
  %.not10.i.i = icmp eq i32 %6, 0
  br i1 %.not10.i.i, label %find_conversation_filter.exit.i, label %7

7:                                                ; preds = %.lr.ph.i.i
  %8 = getelementptr inbounds nuw i8, ptr %.0912.i.i, i64 8
  %9 = load ptr, ptr %8, align 8
  %.not.i.i = icmp eq ptr %9, null
  br i1 %.not.i.i, label %find_conversation_filter.exit.thread.i, label %.lr.ph.i.i, !llvm.loop !8

find_conversation_filter.exit.i:                  ; preds = %.lr.ph.i.i
  %.not18.i = icmp eq ptr %4, null
  br i1 %.not18.i, label %find_conversation_filter.exit.thread.i, label %10

10:                                               ; preds = %find_conversation_filter.exit.i
  %11 = getelementptr inbounds nuw i8, ptr %4, i64 16
  %12 = load ptr, ptr %11, align 8
  %13 = getelementptr inbounds nuw i8, ptr %4, i64 32
  %14 = load ptr, ptr %13, align 8
  %15 = tail call zeroext i1 %12(ptr noundef %0, ptr noundef %14)
  br i1 %15, label %16, label %find_conversation_filter.exit.thread.i

16:                                               ; preds = %10
  %17 = getelementptr inbounds nuw i8, ptr %4, i64 24
  %18 = load ptr, ptr %17, align 8
  %19 = load ptr, ptr %13, align 8
  %20 = tail call ptr %18(ptr noundef %0, ptr noundef %19)
  %.not19.i = icmp eq ptr %20, null
  br i1 %.not19.i, label %find_conversation_filter.exit.thread.i, label %conversation_filter_from_pinfo.exit

find_conversation_filter.exit.thread.i:           ; preds = %7, %16, %10, %find_conversation_filter.exit.i
  %21 = getelementptr inbounds nuw i8, ptr %.01425.i, i64 8
  %.014.i = load ptr, ptr %21, align 8
  %.not.i = icmp eq ptr %.014.i, null
  br i1 %.not.i, label %conversation_filter_from_pinfo.exit, label %.lr.ph.i.preheader.i, !llvm.loop !9

conversation_filter_from_pinfo.exit:              ; preds = %16, %find_conversation_filter.exit.thread.i, %1
  %spec.select.i = phi ptr [ null, %1 ], [ null, %find_conversation_filter.exit.thread.i ], [ %20, %16 ]
  ret ptr %spec.select.i
}